
_zombie:     file format elf32-i386


Disassembly of section .text:

00000000 <main>:
#include "stat.h"
#include "user.h"

int
main(void)
{
   0:	8d 4c 24 04          	lea    0x4(%esp),%ecx
   4:	83 e4 f0             	and    $0xfffffff0,%esp
   7:	ff 71 fc             	pushl  -0x4(%ecx)
   a:	55                   	push   %ebp
   b:	89 e5                	mov    %esp,%ebp
   d:	51                   	push   %ecx
   e:	83 ec 04             	sub    $0x4,%esp
  if(fork() > 0)
  11:	e8 df 02 00 00       	call   2f5 <fork>
  16:	85 c0                	test   %eax,%eax
  18:	7e 0d                	jle    27 <main+0x27>
    sleep(5);  // Let child exit before parent.
  1a:	83 ec 0c             	sub    $0xc,%esp
  1d:	6a 05                	push   $0x5
  1f:	e8 69 03 00 00       	call   38d <sleep>
  24:	83 c4 10             	add    $0x10,%esp
  exit();
  27:	e8 d1 02 00 00       	call   2fd <exit>
  2c:	66 90                	xchg   %ax,%ax
  2e:	66 90                	xchg   %ax,%ax

00000030 <strcpy>:
#include "x86.h"
#include "spinlock.h"

char*
strcpy(char *s, const char *t)
{
  30:	55                   	push   %ebp
  char *os;

  os = s;
  while((*s++ = *t++) != 0)
  31:	31 c0                	xor    %eax,%eax
{
  33:	89 e5                	mov    %esp,%ebp
  35:	53                   	push   %ebx
  36:	8b 4d 08             	mov    0x8(%ebp),%ecx
  39:	8b 5d 0c             	mov    0xc(%ebp),%ebx
  3c:	8d 74 26 00          	lea    0x0(%esi,%eiz,1),%esi
  while((*s++ = *t++) != 0)
  40:	0f b6 14 03          	movzbl (%ebx,%eax,1),%edx
  44:	88 14 01             	mov    %dl,(%ecx,%eax,1)
  47:	83 c0 01             	add    $0x1,%eax
  4a:	84 d2                	test   %dl,%dl
  4c:	75 f2                	jne    40 <strcpy+0x10>
    ;
  return os;
}
  4e:	8b 5d fc             	mov    -0x4(%ebp),%ebx
  51:	89 c8                	mov    %ecx,%eax
  53:	c9                   	leave  
  54:	c3                   	ret    
  55:	8d b4 26 00 00 00 00 	lea    0x0(%esi,%eiz,1),%esi
  5c:	8d 74 26 00          	lea    0x0(%esi,%eiz,1),%esi

00000060 <strcmp>:

int
strcmp(const char *p, const char *q)
{
  60:	55                   	push   %ebp
  61:	89 e5                	mov    %esp,%ebp
  63:	53                   	push   %ebx
  64:	8b 55 08             	mov    0x8(%ebp),%edx
  67:	8b 4d 0c             	mov    0xc(%ebp),%ecx
  while(*p && *p == *q)
  6a:	0f b6 02             	movzbl (%edx),%eax
  6d:	84 c0                	test   %al,%al
  6f:	75 17                	jne    88 <strcmp+0x28>
  71:	eb 3a                	jmp    ad <strcmp+0x4d>
  73:	8d 74 26 00          	lea    0x0(%esi,%eiz,1),%esi
  77:	90                   	nop
  78:	0f b6 42 01          	movzbl 0x1(%edx),%eax
    p++, q++;
  7c:	83 c2 01             	add    $0x1,%edx
  7f:	8d 59 01             	lea    0x1(%ecx),%ebx
  while(*p && *p == *q)
  82:	84 c0                	test   %al,%al
  84:	74 1a                	je     a0 <strcmp+0x40>
    p++, q++;
  86:	89 d9                	mov    %ebx,%ecx
  while(*p && *p == *q)
  88:	0f b6 19             	movzbl (%ecx),%ebx
  8b:	38 c3                	cmp    %al,%bl
  8d:	74 e9                	je     78 <strcmp+0x18>
  return (uchar)*p - (uchar)*q;
  8f:	29 d8                	sub    %ebx,%eax
}
  91:	8b 5d fc             	mov    -0x4(%ebp),%ebx
  94:	c9                   	leave  
  95:	c3                   	ret    
  96:	8d b4 26 00 00 00 00 	lea    0x0(%esi,%eiz,1),%esi
  9d:	8d 76 00             	lea    0x0(%esi),%esi
  return (uchar)*p - (uchar)*q;
  a0:	0f b6 59 01          	movzbl 0x1(%ecx),%ebx
  a4:	31 c0                	xor    %eax,%eax
  a6:	29 d8                	sub    %ebx,%eax
}
  a8:	8b 5d fc             	mov    -0x4(%ebp),%ebx
  ab:	c9                   	leave  
  ac:	c3                   	ret    
  return (uchar)*p - (uchar)*q;
  ad:	0f b6 19             	movzbl (%ecx),%ebx
  b0:	31 c0                	xor    %eax,%eax
  b2:	eb db                	jmp    8f <strcmp+0x2f>
  b4:	8d b4 26 00 00 00 00 	lea    0x0(%esi,%eiz,1),%esi
  bb:	8d 74 26 00          	lea    0x0(%esi,%eiz,1),%esi
  bf:	90                   	nop

000000c0 <strlen>:

uint
strlen(const char *s)
{
  c0:	55                   	push   %ebp
  c1:	89 e5                	mov    %esp,%ebp
  c3:	8b 55 08             	mov    0x8(%ebp),%edx
  int n;

  for(n = 0; s[n]; n++)
  c6:	80 3a 00             	cmpb   $0x0,(%edx)
  c9:	74 15                	je     e0 <strlen+0x20>
  cb:	31 c0                	xor    %eax,%eax
  cd:	8d 76 00             	lea    0x0(%esi),%esi
  d0:	83 c0 01             	add    $0x1,%eax
  d3:	80 3c 02 00          	cmpb   $0x0,(%edx,%eax,1)
  d7:	89 c1                	mov    %eax,%ecx
  d9:	75 f5                	jne    d0 <strlen+0x10>
    ;
  return n;
}
  db:	89 c8                	mov    %ecx,%eax
  dd:	5d                   	pop    %ebp
  de:	c3                   	ret    
  df:	90                   	nop
  for(n = 0; s[n]; n++)
  e0:	31 c9                	xor    %ecx,%ecx
}
  e2:	5d                   	pop    %ebp
  e3:	89 c8                	mov    %ecx,%eax
  e5:	c3                   	ret    
  e6:	8d b4 26 00 00 00 00 	lea    0x0(%esi,%eiz,1),%esi
  ed:	8d 76 00             	lea    0x0(%esi),%esi

000000f0 <memset>:

void*
memset(void *dst, int c, uint n)
{
  f0:	55                   	push   %ebp
  f1:	89 e5                	mov    %esp,%ebp
  f3:	57                   	push   %edi
  f4:	8b 55 08             	mov    0x8(%ebp),%edx
}

static inline void
stosb(void *addr, int data, int cnt)
{
  asm volatile("cld; rep stosb" :
  f7:	8b 4d 10             	mov    0x10(%ebp),%ecx
  fa:	8b 45 0c             	mov    0xc(%ebp),%eax
  fd:	89 d7                	mov    %edx,%edi
  ff:	fc                   	cld    
 100:	f3 aa                	rep stos %al,%es:(%edi)
  stosb(dst, c, n);
  return dst;
}
 102:	8b 7d fc             	mov    -0x4(%ebp),%edi
 105:	89 d0                	mov    %edx,%eax
 107:	c9                   	leave  
 108:	c3                   	ret    
 109:	8d b4 26 00 00 00 00 	lea    0x0(%esi,%eiz,1),%esi

00000110 <strchr>:

char*
strchr(const char *s, char c)
{
 110:	55                   	push   %ebp
 111:	89 e5                	mov    %esp,%ebp
 113:	8b 45 08             	mov    0x8(%ebp),%eax
 116:	0f b6 4d 0c          	movzbl 0xc(%ebp),%ecx
  for(; *s; s++)
 11a:	0f b6 10             	movzbl (%eax),%edx
 11d:	84 d2                	test   %dl,%dl
 11f:	75 12                	jne    133 <strchr+0x23>
 121:	eb 1d                	jmp    140 <strchr+0x30>
 123:	8d 74 26 00          	lea    0x0(%esi,%eiz,1),%esi
 127:	90                   	nop
 128:	0f b6 50 01          	movzbl 0x1(%eax),%edx
 12c:	83 c0 01             	add    $0x1,%eax
 12f:	84 d2                	test   %dl,%dl
 131:	74 0d                	je     140 <strchr+0x30>
    if(*s == c)
 133:	38 d1                	cmp    %dl,%cl
 135:	75 f1                	jne    128 <strchr+0x18>
      return (char*)s;
  return 0;
}
 137:	5d                   	pop    %ebp
 138:	c3                   	ret    
 139:	8d b4 26 00 00 00 00 	lea    0x0(%esi,%eiz,1),%esi
  return 0;
 140:	31 c0                	xor    %eax,%eax
}
 142:	5d                   	pop    %ebp
 143:	c3                   	ret    
 144:	8d b4 26 00 00 00 00 	lea    0x0(%esi,%eiz,1),%esi
 14b:	8d 74 26 00          	lea    0x0(%esi,%eiz,1),%esi
 14f:	90                   	nop

00000150 <gets>:

char*
gets(char *buf, int max)
{
 150:	55                   	push   %ebp
 151:	89 e5                	mov    %esp,%ebp
 153:	57                   	push   %edi
 154:	56                   	push   %esi
  int i, cc;
  char c;

  for(i=0; i+1 < max; ){
    cc = read(0, &c, 1);
 155:	8d 7d e7             	lea    -0x19(%ebp),%edi
{
 158:	53                   	push   %ebx
  for(i=0; i+1 < max; ){
 159:	31 db                	xor    %ebx,%ebx
{
 15b:	83 ec 1c             	sub    $0x1c,%esp
  for(i=0; i+1 < max; ){
 15e:	eb 27                	jmp    187 <gets+0x37>
    cc = read(0, &c, 1);
 160:	83 ec 04             	sub    $0x4,%esp
 163:	6a 01                	push   $0x1
 165:	57                   	push   %edi
 166:	6a 00                	push   $0x0
 168:	e8 a8 01 00 00       	call   315 <read>
    if(cc < 1)
 16d:	83 c4 10             	add    $0x10,%esp
 170:	85 c0                	test   %eax,%eax
 172:	7e 1d                	jle    191 <gets+0x41>
      break;
    buf[i++] = c;
 174:	0f b6 45 e7          	movzbl -0x19(%ebp),%eax
 178:	8b 55 08             	mov    0x8(%ebp),%edx
 17b:	88 44 1a ff          	mov    %al,-0x1(%edx,%ebx,1)
    if(c == '\n' || c == '\r')
 17f:	3c 0a                	cmp    $0xa,%al
 181:	74 1d                	je     1a0 <gets+0x50>
 183:	3c 0d                	cmp    $0xd,%al
 185:	74 19                	je     1a0 <gets+0x50>
  for(i=0; i+1 < max; ){
 187:	89 de                	mov    %ebx,%esi
 189:	83 c3 01             	add    $0x1,%ebx
 18c:	3b 5d 0c             	cmp    0xc(%ebp),%ebx
 18f:	7c cf                	jl     160 <gets+0x10>
      break;
  }
  buf[i] = '\0';
 191:	8b 45 08             	mov    0x8(%ebp),%eax
 194:	c6 04 30 00          	movb   $0x0,(%eax,%esi,1)
  return buf;
}
 198:	8d 65 f4             	lea    -0xc(%ebp),%esp
 19b:	5b                   	pop    %ebx
 19c:	5e                   	pop    %esi
 19d:	5f                   	pop    %edi
 19e:	5d                   	pop    %ebp
 19f:	c3                   	ret    
  buf[i] = '\0';
 1a0:	8b 45 08             	mov    0x8(%ebp),%eax
 1a3:	89 de                	mov    %ebx,%esi
 1a5:	c6 04 30 00          	movb   $0x0,(%eax,%esi,1)
}
 1a9:	8d 65 f4             	lea    -0xc(%ebp),%esp
 1ac:	5b                   	pop    %ebx
 1ad:	5e                   	pop    %esi
 1ae:	5f                   	pop    %edi
 1af:	5d                   	pop    %ebp
 1b0:	c3                   	ret    
 1b1:	8d b4 26 00 00 00 00 	lea    0x0(%esi,%eiz,1),%esi
 1b8:	8d b4 26 00 00 00 00 	lea    0x0(%esi,%eiz,1),%esi
 1bf:	90                   	nop

000001c0 <stat>:

int
stat(const char *n, struct stat *st)
{
 1c0:	55                   	push   %ebp
 1c1:	89 e5                	mov    %esp,%ebp
 1c3:	56                   	push   %esi
 1c4:	53                   	push   %ebx
  int fd;
  int r;

  fd = open(n, O_RDONLY);
 1c5:	83 ec 08             	sub    $0x8,%esp
 1c8:	6a 00                	push   $0x0
 1ca:	ff 75 08             	pushl  0x8(%ebp)
 1cd:	e8 6b 01 00 00       	call   33d <open>
  if(fd < 0)
 1d2:	83 c4 10             	add    $0x10,%esp
 1d5:	85 c0                	test   %eax,%eax
 1d7:	78 27                	js     200 <stat+0x40>
    return -1;
  r = fstat(fd, st);
 1d9:	83 ec 08             	sub    $0x8,%esp
 1dc:	ff 75 0c             	pushl  0xc(%ebp)
 1df:	89 c3                	mov    %eax,%ebx
 1e1:	50                   	push   %eax
 1e2:	e8 6e 01 00 00       	call   355 <fstat>
  close(fd);
 1e7:	89 1c 24             	mov    %ebx,(%esp)
  r = fstat(fd, st);
 1ea:	89 c6                	mov    %eax,%esi
  close(fd);
 1ec:	e8 34 01 00 00       	call   325 <close>
  return r;
 1f1:	83 c4 10             	add    $0x10,%esp
}
 1f4:	8d 65 f8             	lea    -0x8(%ebp),%esp
 1f7:	89 f0                	mov    %esi,%eax
 1f9:	5b                   	pop    %ebx
 1fa:	5e                   	pop    %esi
 1fb:	5d                   	pop    %ebp
 1fc:	c3                   	ret    
 1fd:	8d 76 00             	lea    0x0(%esi),%esi
    return -1;
 200:	be ff ff ff ff       	mov    $0xffffffff,%esi
 205:	eb ed                	jmp    1f4 <stat+0x34>
 207:	8d b4 26 00 00 00 00 	lea    0x0(%esi,%eiz,1),%esi
 20e:	66 90                	xchg   %ax,%ax

00000210 <atoi>:

int
atoi(const char *s)
{
 210:	55                   	push   %ebp
 211:	89 e5                	mov    %esp,%ebp
 213:	53                   	push   %ebx
 214:	8b 55 08             	mov    0x8(%ebp),%edx
  int n;

  n = 0;
  while('0' <= *s && *s <= '9')
 217:	0f be 02             	movsbl (%edx),%eax
 21a:	8d 48 d0             	lea    -0x30(%eax),%ecx
 21d:	80 f9 09             	cmp    $0x9,%cl
  n = 0;
 220:	b9 00 00 00 00       	mov    $0x0,%ecx
  while('0' <= *s && *s <= '9')
 225:	77 1e                	ja     245 <atoi+0x35>
 227:	8d b4 26 00 00 00 00 	lea    0x0(%esi,%eiz,1),%esi
 22e:	66 90                	xchg   %ax,%ax
    n = n*10 + *s++ - '0';
 230:	83 c2 01             	add    $0x1,%edx
 233:	8d 0c 89             	lea    (%ecx,%ecx,4),%ecx
 236:	8d 4c 48 d0          	lea    -0x30(%eax,%ecx,2),%ecx
  while('0' <= *s && *s <= '9')
 23a:	0f be 02             	movsbl (%edx),%eax
 23d:	8d 58 d0             	lea    -0x30(%eax),%ebx
 240:	80 fb 09             	cmp    $0x9,%bl
 243:	76 eb                	jbe    230 <atoi+0x20>
  return n;
}
 245:	8b 5d fc             	mov    -0x4(%ebp),%ebx
 248:	89 c8                	mov    %ecx,%eax
 24a:	c9                   	leave  
 24b:	c3                   	ret    
 24c:	8d 74 26 00          	lea    0x0(%esi,%eiz,1),%esi

00000250 <memmove>:

void*
memmove(void *vdst, const void *vsrc, int n)
{
 250:	55                   	push   %ebp
 251:	89 e5                	mov    %esp,%ebp
 253:	57                   	push   %edi
 254:	8b 45 10             	mov    0x10(%ebp),%eax
 257:	8b 55 08             	mov    0x8(%ebp),%edx
 25a:	56                   	push   %esi
 25b:	8b 75 0c             	mov    0xc(%ebp),%esi
  char *dst;
  const char *src;

  dst = vdst;
  src = vsrc;
  while(n-- > 0)
 25e:	85 c0                	test   %eax,%eax
 260:	7e 13                	jle    275 <memmove+0x25>
 262:	01 d0                	add    %edx,%eax
  dst = vdst;
 264:	89 d7                	mov    %edx,%edi
 266:	8d b4 26 00 00 00 00 	lea    0x0(%esi,%eiz,1),%esi
 26d:	8d 76 00             	lea    0x0(%esi),%esi
    *dst++ = *src++;
 270:	a4                   	movsb  %ds:(%esi),%es:(%edi)
  while(n-- > 0)
 271:	39 f8                	cmp    %edi,%eax
 273:	75 fb                	jne    270 <memmove+0x20>
  return vdst;
}
 275:	5e                   	pop    %esi
 276:	89 d0                	mov    %edx,%eax
 278:	5f                   	pop    %edi
 279:	5d                   	pop    %ebp
 27a:	c3                   	ret    
 27b:	8d 74 26 00          	lea    0x0(%esi,%eiz,1),%esi
 27f:	90                   	nop

00000280 <thread_create>:

int
thread_create(void (*fn)(void *), void *arg)
{
 280:	55                   	push   %ebp
 281:	89 e5                	mov    %esp,%ebp
 283:	53                   	push   %ebx
 284:	83 ec 10             	sub    $0x10,%esp
  void *stack = malloc(4096);
 287:	68 00 10 00 00       	push   $0x1000
 28c:	e8 0f 04 00 00       	call   6a0 <malloc>
  if(stack == 0)
 291:	83 c4 10             	add    $0x10,%esp
 294:	85 c0                	test   %eax,%eax
 296:	74 3b                	je     2d3 <thread_create+0x53>
 298:	89 c3                	mov    %eax,%ebx
    return -1;
  
  // Check for page alignment.
  if(((uint)stack % 4096) != 0){
 29a:	a9 ff 0f 00 00       	test   $0xfff,%eax
 29f:	75 1f                	jne    2c0 <thread_create+0x40>
    free(stack);
    return -1;
  }
  
  int tid = clone(stack);
 2a1:	83 ec 0c             	sub    $0xc,%esp
 2a4:	50                   	push   %eax
 2a5:	e8 f3 00 00 00       	call   39d <clone>
  if(tid < 0){
 2aa:	83 c4 10             	add    $0x10,%esp
 2ad:	85 c0                	test   %eax,%eax
 2af:	78 0f                	js     2c0 <thread_create+0x40>
    free(stack);
    return -1;
  }
  
  if(tid == 0){
 2b1:	74 27                	je     2da <thread_create+0x5a>
    exit();
  }
  
  // Parent returns the new thread's id.
  return tid;
}
 2b3:	8b 5d fc             	mov    -0x4(%ebp),%ebx
 2b6:	c9                   	leave  
 2b7:	c3                   	ret    
 2b8:	8d b4 26 00 00 00 00 	lea    0x0(%esi,%eiz,1),%esi
 2bf:	90                   	nop
    free(stack);
 2c0:	83 ec 0c             	sub    $0xc,%esp
 2c3:	53                   	push   %ebx
 2c4:	e8 47 03 00 00       	call   610 <free>
    return -1;
 2c9:	83 c4 10             	add    $0x10,%esp
 2cc:	b8 ff ff ff ff       	mov    $0xffffffff,%eax
 2d1:	eb e0                	jmp    2b3 <thread_create+0x33>
    return -1;
 2d3:	b8 ff ff ff ff       	mov    $0xffffffff,%eax
 2d8:	eb d9                	jmp    2b3 <thread_create+0x33>
    fn(arg);
 2da:	83 ec 0c             	sub    $0xc,%esp
 2dd:	ff 75 0c             	pushl  0xc(%ebp)
 2e0:	ff 55 08             	call   *0x8(%ebp)
    free(stack);
 2e3:	89 1c 24             	mov    %ebx,(%esp)
 2e6:	e8 25 03 00 00       	call   610 <free>
    exit();
 2eb:	e8 0d 00 00 00       	call   2fd <exit>

000002f0 <thread_join>:

int
thread_join(void)
{
  return join();
 2f0:	e9 c0 00 00 00       	jmp    3b5 <join>

000002f5 <fork>:
  name: \
    movl $SYS_ ## name, %eax; \
    int $T_SYSCALL; \
    ret

SYSCALL(fork)
 2f5:	b8 01 00 00 00       	mov    $0x1,%eax
 2fa:	cd 40                	int    $0x40
 2fc:	c3                   	ret    

000002fd <exit>:
SYSCALL(exit)
 2fd:	b8 02 00 00 00       	mov    $0x2,%eax
 302:	cd 40                	int    $0x40
 304:	c3                   	ret    

00000305 <wait>:
SYSCALL(wait)
 305:	b8 03 00 00 00       	mov    $0x3,%eax
 30a:	cd 40                	int    $0x40
 30c:	c3                   	ret    

0000030d <pipe>:
SYSCALL(pipe)
 30d:	b8 04 00 00 00       	mov    $0x4,%eax
 312:	cd 40                	int    $0x40
 314:	c3                   	ret    

00000315 <read>:
SYSCALL(read)
 315:	b8 05 00 00 00       	mov    $0x5,%eax
 31a:	cd 40                	int    $0x40
 31c:	c3                   	ret    

0000031d <write>:
SYSCALL(write)
 31d:	b8 10 00 00 00       	mov    $0x10,%eax
 322:	cd 40                	int    $0x40
 324:	c3                   	ret    

00000325 <close>:
SYSCALL(close)
 325:	b8 15 00 00 00       	mov    $0x15,%eax
 32a:	cd 40                	int    $0x40
 32c:	c3                   	ret    

0000032d <kill>:
SYSCALL(kill)
 32d:	b8 06 00 00 00       	mov    $0x6,%eax
 332:	cd 40                	int    $0x40
 334:	c3                   	ret    

00000335 <exec>:
SYSCALL(exec)
 335:	b8 07 00 00 00       	mov    $0x7,%eax
 33a:	cd 40                	int    $0x40
 33c:	c3                   	ret    

0000033d <open>:
SYSCALL(open)
 33d:	b8 0f 00 00 00       	mov    $0xf,%eax
 342:	cd 40                	int    $0x40
 344:	c3                   	ret    

00000345 <mknod>:
SYSCALL(mknod)
 345:	b8 11 00 00 00       	mov    $0x11,%eax
 34a:	cd 40                	int    $0x40
 34c:	c3                   	ret    

0000034d <unlink>:
SYSCALL(unlink)
 34d:	b8 12 00 00 00       	mov    $0x12,%eax
 352:	cd 40                	int    $0x40
 354:	c3                   	ret    

00000355 <fstat>:
SYSCALL(fstat)
 355:	b8 08 00 00 00       	mov    $0x8,%eax
 35a:	cd 40                	int    $0x40
 35c:	c3                   	ret    

0000035d <link>:
SYSCALL(link)
 35d:	b8 13 00 00 00       	mov    $0x13,%eax
 362:	cd 40                	int    $0x40
 364:	c3                   	ret    

00000365 <mkdir>:
SYSCALL(mkdir)
 365:	b8 14 00 00 00       	mov    $0x14,%eax
 36a:	cd 40                	int    $0x40
 36c:	c3                   	ret    

0000036d <chdir>:
SYSCALL(chdir)
 36d:	b8 09 00 00 00       	mov    $0x9,%eax
 372:	cd 40                	int    $0x40
 374:	c3                   	ret    

00000375 <dup>:
SYSCALL(dup)
 375:	b8 0a 00 00 00       	mov    $0xa,%eax
 37a:	cd 40                	int    $0x40
 37c:	c3                   	ret    

0000037d <getpid>:
SYSCALL(getpid)
 37d:	b8 0b 00 00 00       	mov    $0xb,%eax
 382:	cd 40                	int    $0x40
 384:	c3                   	ret    

00000385 <sbrk>:
SYSCALL(sbrk)
 385:	b8 0c 00 00 00       	mov    $0xc,%eax
 38a:	cd 40                	int    $0x40
 38c:	c3                   	ret    

0000038d <sleep>:
SYSCALL(sleep)
 38d:	b8 0d 00 00 00       	mov    $0xd,%eax
 392:	cd 40                	int    $0x40
 394:	c3                   	ret    

00000395 <uptime>:
SYSCALL(uptime)
 395:	b8 0e 00 00 00       	mov    $0xe,%eax
 39a:	cd 40                	int    $0x40
 39c:	c3                   	ret    

0000039d <clone>:
SYSCALL(clone)
 39d:	b8 16 00 00 00       	mov    $0x16,%eax
 3a2:	cd 40                	int    $0x40
 3a4:	c3                   	ret    

000003a5 <lock>:
SYSCALL(lock)
 3a5:	b8 17 00 00 00       	mov    $0x17,%eax
 3aa:	cd 40                	int    $0x40
 3ac:	c3                   	ret    

000003ad <unlock>:
SYSCALL(unlock)
 3ad:	b8 18 00 00 00       	mov    $0x18,%eax
 3b2:	cd 40                	int    $0x40
 3b4:	c3                   	ret    

000003b5 <join>:
SYSCALL(join)
 3b5:	b8 19 00 00 00       	mov    $0x19,%eax
 3ba:	cd 40                	int    $0x40
 3bc:	c3                   	ret    
 3bd:	66 90                	xchg   %ax,%ax
 3bf:	90                   	nop

000003c0 <printint>:
  write(fd, &c, 1);
}

static void
printint(int fd, int xx, int base, int sgn)
{
 3c0:	55                   	push   %ebp
 3c1:	89 e5                	mov    %esp,%ebp
 3c3:	57                   	push   %edi
 3c4:	56                   	push   %esi
 3c5:	53                   	push   %ebx
 3c6:	83 ec 3c             	sub    $0x3c,%esp
 3c9:	89 4d c4             	mov    %ecx,-0x3c(%ebp)
  uint x;

  neg = 0;
  if(sgn && xx < 0){
    neg = 1;
    x = -xx;
 3cc:	89 d1                	mov    %edx,%ecx
{
 3ce:	89 45 b8             	mov    %eax,-0x48(%ebp)
  if(sgn && xx < 0){
 3d1:	85 d2                	test   %edx,%edx
 3d3:	0f 89 7f 00 00 00    	jns    458 <printint+0x98>
 3d9:	f6 45 08 01          	testb  $0x1,0x8(%ebp)
 3dd:	74 79                	je     458 <printint+0x98>
    neg = 1;
 3df:	c7 45 bc 01 00 00 00 	movl   $0x1,-0x44(%ebp)
    x = -xx;
 3e6:	f7 d9                	neg    %ecx
  } else {
    x = xx;
  }

  i = 0;
 3e8:	31 db                	xor    %ebx,%ebx
 3ea:	8d 75 d7             	lea    -0x29(%ebp),%esi
 3ed:	8d 76 00             	lea    0x0(%esi),%esi
  do{
    buf[i++] = digits[x % base];
 3f0:	89 c8                	mov    %ecx,%eax
 3f2:	31 d2                	xor    %edx,%edx
 3f4:	89 cf                	mov    %ecx,%edi
 3f6:	f7 75 c4             	divl   -0x3c(%ebp)
 3f9:	0f b6 92 f8 07 00 00 	movzbl 0x7f8(%edx),%edx
 400:	89 45 c0             	mov    %eax,-0x40(%ebp)
 403:	89 d8                	mov    %ebx,%eax
 405:	8d 5b 01             	lea    0x1(%ebx),%ebx
  }while((x /= base) != 0);
 408:	8b 4d c0             	mov    -0x40(%ebp),%ecx
    buf[i++] = digits[x % base];
 40b:	88 14 1e             	mov    %dl,(%esi,%ebx,1)
  }while((x /= base) != 0);
 40e:	39 7d c4             	cmp    %edi,-0x3c(%ebp)
 411:	76 dd                	jbe    3f0 <printint+0x30>
  if(neg)
 413:	8b 4d bc             	mov    -0x44(%ebp),%ecx
 416:	85 c9                	test   %ecx,%ecx
 418:	74 0c                	je     426 <printint+0x66>
    buf[i++] = '-';
 41a:	c6 44 1d d8 2d       	movb   $0x2d,-0x28(%ebp,%ebx,1)
    buf[i++] = digits[x % base];
 41f:	89 d8                	mov    %ebx,%eax
    buf[i++] = '-';
 421:	ba 2d 00 00 00       	mov    $0x2d,%edx

  while(--i >= 0)
 426:	8b 7d b8             	mov    -0x48(%ebp),%edi
 429:	8d 5c 05 d7          	lea    -0x29(%ebp,%eax,1),%ebx
 42d:	eb 07                	jmp    436 <printint+0x76>
 42f:	90                   	nop
    putc(fd, buf[i]);
 430:	0f b6 13             	movzbl (%ebx),%edx
 433:	83 eb 01             	sub    $0x1,%ebx
  write(fd, &c, 1);
 436:	83 ec 04             	sub    $0x4,%esp
 439:	88 55 d7             	mov    %dl,-0x29(%ebp)
 43c:	6a 01                	push   $0x1
 43e:	56                   	push   %esi
 43f:	57                   	push   %edi
 440:	e8 d8 fe ff ff       	call   31d <write>
  while(--i >= 0)
 445:	83 c4 10             	add    $0x10,%esp
 448:	39 de                	cmp    %ebx,%esi
 44a:	75 e4                	jne    430 <printint+0x70>
}
 44c:	8d 65 f4             	lea    -0xc(%ebp),%esp
 44f:	5b                   	pop    %ebx
 450:	5e                   	pop    %esi
 451:	5f                   	pop    %edi
 452:	5d                   	pop    %ebp
 453:	c3                   	ret    
 454:	8d 74 26 00          	lea    0x0(%esi,%eiz,1),%esi
  neg = 0;
 458:	c7 45 bc 00 00 00 00 	movl   $0x0,-0x44(%ebp)
 45f:	eb 87                	jmp    3e8 <printint+0x28>
 461:	8d b4 26 00 00 00 00 	lea    0x0(%esi,%eiz,1),%esi
 468:	8d b4 26 00 00 00 00 	lea    0x0(%esi,%eiz,1),%esi
 46f:	90                   	nop

00000470 <printf>:

// Print to the given fd. Only understands %d, %x, %p, %s.
void
printf(int fd, const char *fmt, ...)
{
 470:	55                   	push   %ebp
 471:	89 e5                	mov    %esp,%ebp
 473:	57                   	push   %edi
 474:	56                   	push   %esi
 475:	53                   	push   %ebx
 476:	83 ec 2c             	sub    $0x2c,%esp
  int c, i, state;
  uint *ap;

  state = 0;
  ap = (uint*)(void*)&fmt + 1;
  for(i = 0; fmt[i]; i++){
 479:	8b 5d 0c             	mov    0xc(%ebp),%ebx
{
 47c:	8b 75 08             	mov    0x8(%ebp),%esi
  for(i = 0; fmt[i]; i++){
 47f:	0f b6 13             	movzbl (%ebx),%edx
 482:	84 d2                	test   %dl,%dl
 484:	74 6a                	je     4f0 <printf+0x80>
  ap = (uint*)(void*)&fmt + 1;
 486:	8d 45 10             	lea    0x10(%ebp),%eax
 489:	83 c3 01             	add    $0x1,%ebx
  write(fd, &c, 1);
 48c:	8d 7d e7             	lea    -0x19(%ebp),%edi
  state = 0;
 48f:	31 c9                	xor    %ecx,%ecx
  ap = (uint*)(void*)&fmt + 1;
 491:	89 45 d0             	mov    %eax,-0x30(%ebp)
 494:	eb 36                	jmp    4cc <printf+0x5c>
 496:	8d b4 26 00 00 00 00 	lea    0x0(%esi,%eiz,1),%esi
 49d:	8d 76 00             	lea    0x0(%esi),%esi
 4a0:	89 4d d4             	mov    %ecx,-0x2c(%ebp)
    c = fmt[i] & 0xff;
    if(state == 0){
      if(c == '%'){
        state = '%';
 4a3:	b9 25 00 00 00       	mov    $0x25,%ecx
      if(c == '%'){
 4a8:	83 f8 25             	cmp    $0x25,%eax
 4ab:	74 15                	je     4c2 <printf+0x52>
  write(fd, &c, 1);
 4ad:	83 ec 04             	sub    $0x4,%esp
 4b0:	88 55 e7             	mov    %dl,-0x19(%ebp)
 4b3:	6a 01                	push   $0x1
 4b5:	57                   	push   %edi
 4b6:	56                   	push   %esi
 4b7:	e8 61 fe ff ff       	call   31d <write>
 4bc:	8b 4d d4             	mov    -0x2c(%ebp),%ecx
      } else {
        putc(fd, c);
 4bf:	83 c4 10             	add    $0x10,%esp
  for(i = 0; fmt[i]; i++){
 4c2:	0f b6 13             	movzbl (%ebx),%edx
 4c5:	83 c3 01             	add    $0x1,%ebx
 4c8:	84 d2                	test   %dl,%dl
 4ca:	74 24                	je     4f0 <printf+0x80>
    c = fmt[i] & 0xff;
 4cc:	0f b6 c2             	movzbl %dl,%eax
    if(state == 0){
 4cf:	85 c9                	test   %ecx,%ecx
 4d1:	74 cd                	je     4a0 <printf+0x30>
      }
    } else if(state == '%'){
 4d3:	83 f9 25             	cmp    $0x25,%ecx
 4d6:	75 ea                	jne    4c2 <printf+0x52>
      if(c == 'd'){
 4d8:	83 f8 25             	cmp    $0x25,%eax
 4db:	0f 84 07 01 00 00    	je     5e8 <printf+0x178>
 4e1:	83 e8 63             	sub    $0x63,%eax
 4e4:	83 f8 15             	cmp    $0x15,%eax
 4e7:	77 17                	ja     500 <printf+0x90>
 4e9:	ff 24 85 a0 07 00 00 	jmp    *0x7a0(,%eax,4)
        putc(fd, c);
      }
      state = 0;
    }
  }
}
 4f0:	8d 65 f4             	lea    -0xc(%ebp),%esp
 4f3:	5b                   	pop    %ebx
 4f4:	5e                   	pop    %esi
 4f5:	5f                   	pop    %edi
 4f6:	5d                   	pop    %ebp
 4f7:	c3                   	ret    
 4f8:	8d b4 26 00 00 00 00 	lea    0x0(%esi,%eiz,1),%esi
 4ff:	90                   	nop
  write(fd, &c, 1);
 500:	83 ec 04             	sub    $0x4,%esp
 503:	88 55 d4             	mov    %dl,-0x2c(%ebp)
 506:	6a 01                	push   $0x1
 508:	57                   	push   %edi
 509:	56                   	push   %esi
 50a:	c6 45 e7 25          	movb   $0x25,-0x19(%ebp)
 50e:	e8 0a fe ff ff       	call   31d <write>
        putc(fd, c);
 513:	0f b6 55 d4          	movzbl -0x2c(%ebp),%edx
  write(fd, &c, 1);
 517:	83 c4 0c             	add    $0xc,%esp
 51a:	88 55 e7             	mov    %dl,-0x19(%ebp)
 51d:	6a 01                	push   $0x1
 51f:	57                   	push   %edi
 520:	56                   	push   %esi
 521:	e8 f7 fd ff ff       	call   31d <write>
        putc(fd, c);
 526:	83 c4 10             	add    $0x10,%esp
      state = 0;
 529:	31 c9                	xor    %ecx,%ecx
 52b:	eb 95                	jmp    4c2 <printf+0x52>
 52d:	8d 76 00             	lea    0x0(%esi),%esi
        printint(fd, *ap, 16, 0);
 530:	83 ec 0c             	sub    $0xc,%esp
 533:	b9 10 00 00 00       	mov    $0x10,%ecx
 538:	6a 00                	push   $0x0
 53a:	8b 45 d0             	mov    -0x30(%ebp),%eax
 53d:	8b 10                	mov    (%eax),%edx
 53f:	89 f0                	mov    %esi,%eax
 541:	e8 7a fe ff ff       	call   3c0 <printint>
        ap++;
 546:	83 45 d0 04          	addl   $0x4,-0x30(%ebp)
 54a:	83 c4 10             	add    $0x10,%esp
      state = 0;
 54d:	31 c9                	xor    %ecx,%ecx
 54f:	e9 6e ff ff ff       	jmp    4c2 <printf+0x52>
 554:	8d 74 26 00          	lea    0x0(%esi,%eiz,1),%esi
        s = (char*)*ap;
 558:	8b 45 d0             	mov    -0x30(%ebp),%eax
 55b:	8b 10                	mov    (%eax),%edx
        ap++;
 55d:	83 c0 04             	add    $0x4,%eax
 560:	89 45 d0             	mov    %eax,-0x30(%ebp)
        if(s == 0)
 563:	85 d2                	test   %edx,%edx
 565:	0f 84 8d 00 00 00    	je     5f8 <printf+0x188>
        while(*s != 0){
 56b:	0f b6 02             	movzbl (%edx),%eax
      state = 0;
 56e:	31 c9                	xor    %ecx,%ecx
        while(*s != 0){
 570:	84 c0                	test   %al,%al
 572:	0f 84 4a ff ff ff    	je     4c2 <printf+0x52>
 578:	89 5d d4             	mov    %ebx,-0x2c(%ebp)
 57b:	89 d3                	mov    %edx,%ebx
 57d:	8d 76 00             	lea    0x0(%esi),%esi
  write(fd, &c, 1);
 580:	83 ec 04             	sub    $0x4,%esp
          s++;
 583:	83 c3 01             	add    $0x1,%ebx
 586:	88 45 e7             	mov    %al,-0x19(%ebp)
  write(fd, &c, 1);
 589:	6a 01                	push   $0x1
 58b:	57                   	push   %edi
 58c:	56                   	push   %esi
 58d:	e8 8b fd ff ff       	call   31d <write>
        while(*s != 0){
 592:	0f b6 03             	movzbl (%ebx),%eax
 595:	83 c4 10             	add    $0x10,%esp
 598:	84 c0                	test   %al,%al
 59a:	75 e4                	jne    580 <printf+0x110>
      state = 0;
 59c:	8b 5d d4             	mov    -0x2c(%ebp),%ebx
 59f:	31 c9                	xor    %ecx,%ecx
 5a1:	e9 1c ff ff ff       	jmp    4c2 <printf+0x52>
 5a6:	8d b4 26 00 00 00 00 	lea    0x0(%esi,%eiz,1),%esi
 5ad:	8d 76 00             	lea    0x0(%esi),%esi
        printint(fd, *ap, 10, 1);
 5b0:	83 ec 0c             	sub    $0xc,%esp
 5b3:	b9 0a 00 00 00       	mov    $0xa,%ecx
 5b8:	6a 01                	push   $0x1
 5ba:	e9 7b ff ff ff       	jmp    53a <printf+0xca>
 5bf:	90                   	nop
        putc(fd, *ap);
 5c0:	8b 45 d0             	mov    -0x30(%ebp),%eax
  write(fd, &c, 1);
 5c3:	83 ec 04             	sub    $0x4,%esp
        putc(fd, *ap);
 5c6:	8b 00                	mov    (%eax),%eax
  write(fd, &c, 1);
 5c8:	6a 01                	push   $0x1
 5ca:	57                   	push   %edi
 5cb:	56                   	push   %esi
        putc(fd, *ap);
 5cc:	88 45 e7             	mov    %al,-0x19(%ebp)
  write(fd, &c, 1);
 5cf:	e8 49 fd ff ff       	call   31d <write>
        ap++;
 5d4:	83 45 d0 04          	addl   $0x4,-0x30(%ebp)
 5d8:	83 c4 10             	add    $0x10,%esp
      state = 0;
 5db:	31 c9                	xor    %ecx,%ecx
 5dd:	e9 e0 fe ff ff       	jmp    4c2 <printf+0x52>
 5e2:	8d b6 00 00 00 00    	lea    0x0(%esi),%esi
        putc(fd, c);
 5e8:	88 55 e7             	mov    %dl,-0x19(%ebp)
  write(fd, &c, 1);
 5eb:	83 ec 04             	sub    $0x4,%esp
 5ee:	e9 2a ff ff ff       	jmp    51d <printf+0xad>
 5f3:	8d 74 26 00          	lea    0x0(%esi,%eiz,1),%esi
 5f7:	90                   	nop
          s = "(null)";
 5f8:	ba 98 07 00 00       	mov    $0x798,%edx
        while(*s != 0){
 5fd:	89 5d d4             	mov    %ebx,-0x2c(%ebp)
 600:	b8 28 00 00 00       	mov    $0x28,%eax
 605:	89 d3                	mov    %edx,%ebx
 607:	e9 74 ff ff ff       	jmp    580 <printf+0x110>
 60c:	66 90                	xchg   %ax,%ax
 60e:	66 90                	xchg   %ax,%ax

00000610 <free>:
static Header base;
static Header *freep;

void
free(void *ap)
{
 610:	55                   	push   %ebp
  Header *bp, *p;

  bp = (Header*)ap - 1;
  for(p = freep; !(bp > p && bp < p->s.ptr); p = p->s.ptr)
 611:	a1 dc 0a 00 00       	mov    0xadc,%eax
{
 616:	89 e5                	mov    %esp,%ebp
 618:	57                   	push   %edi
 619:	56                   	push   %esi
 61a:	53                   	push   %ebx
 61b:	8b 5d 08             	mov    0x8(%ebp),%ebx
  bp = (Header*)ap - 1;
 61e:	8d 4b f8             	lea    -0x8(%ebx),%ecx
  for(p = freep; !(bp > p && bp < p->s.ptr); p = p->s.ptr)
 621:	8d b4 26 00 00 00 00 	lea    0x0(%esi,%eiz,1),%esi
 628:	89 c2                	mov    %eax,%edx
 62a:	8b 00                	mov    (%eax),%eax
 62c:	39 ca                	cmp    %ecx,%edx
 62e:	73 30                	jae    660 <free+0x50>
 630:	39 c1                	cmp    %eax,%ecx
 632:	72 04                	jb     638 <free+0x28>
    if(p >= p->s.ptr && (bp > p || bp < p->s.ptr))
 634:	39 c2                	cmp    %eax,%edx
 636:	72 f0                	jb     628 <free+0x18>
      break;
  if(bp + bp->s.size == p->s.ptr){
 638:	8b 73 fc             	mov    -0x4(%ebx),%esi
 63b:	8d 3c f1             	lea    (%ecx,%esi,8),%edi
 63e:	39 f8                	cmp    %edi,%eax
 640:	74 30                	je     672 <free+0x62>
    bp->s.size += p->s.ptr->s.size;
    bp->s.ptr = p->s.ptr->s.ptr;
 642:	89 43 f8             	mov    %eax,-0x8(%ebx)
  } else
    bp->s.ptr = p->s.ptr;
  if(p + p->s.size == bp){
 645:	8b 42 04             	mov    0x4(%edx),%eax
 648:	8d 34 c2             	lea    (%edx,%eax,8),%esi
 64b:	39 f1                	cmp    %esi,%ecx
 64d:	74 3a                	je     689 <free+0x79>
    p->s.size += bp->s.size;
    p->s.ptr = bp->s.ptr;
 64f:	89 0a                	mov    %ecx,(%edx)
  } else
    p->s.ptr = bp;
  freep = p;
}
 651:	5b                   	pop    %ebx
  freep = p;
 652:	89 15 dc 0a 00 00    	mov    %edx,0xadc
}
 658:	5e                   	pop    %esi
 659:	5f                   	pop    %edi
 65a:	5d                   	pop    %ebp
 65b:	c3                   	ret    
 65c:	8d 74 26 00          	lea    0x0(%esi,%eiz,1),%esi
    if(p >= p->s.ptr && (bp > p || bp < p->s.ptr))
 660:	39 c2                	cmp    %eax,%edx
 662:	72 c4                	jb     628 <free+0x18>
 664:	39 c1                	cmp    %eax,%ecx
 666:	73 c0                	jae    628 <free+0x18>
  if(bp + bp->s.size == p->s.ptr){
 668:	8b 73 fc             	mov    -0x4(%ebx),%esi
 66b:	8d 3c f1             	lea    (%ecx,%esi,8),%edi
 66e:	39 f8                	cmp    %edi,%eax
 670:	75 d0                	jne    642 <free+0x32>
    bp->s.size += p->s.ptr->s.size;
 672:	03 70 04             	add    0x4(%eax),%esi
 675:	89 73 fc             	mov    %esi,-0x4(%ebx)
    bp->s.ptr = p->s.ptr->s.ptr;
 678:	8b 02                	mov    (%edx),%eax
 67a:	8b 00                	mov    (%eax),%eax
 67c:	89 43 f8             	mov    %eax,-0x8(%ebx)
  if(p + p->s.size == bp){
 67f:	8b 42 04             	mov    0x4(%edx),%eax
 682:	8d 34 c2             	lea    (%edx,%eax,8),%esi
 685:	39 f1                	cmp    %esi,%ecx
 687:	75 c6                	jne    64f <free+0x3f>
    p->s.size += bp->s.size;
 689:	03 43 fc             	add    -0x4(%ebx),%eax
  freep = p;
 68c:	89 15 dc 0a 00 00    	mov    %edx,0xadc
    p->s.size += bp->s.size;
 692:	89 42 04             	mov    %eax,0x4(%edx)
    p->s.ptr = bp->s.ptr;
 695:	8b 4b f8             	mov    -0x8(%ebx),%ecx
 698:	89 0a                	mov    %ecx,(%edx)
}
 69a:	5b                   	pop    %ebx
 69b:	5e                   	pop    %esi
 69c:	5f                   	pop    %edi
 69d:	5d                   	pop    %ebp
 69e:	c3                   	ret    
 69f:	90                   	nop

000006a0 <malloc>:
  return freep;
}

void*
malloc(uint nbytes)
{
 6a0:	55                   	push   %ebp
 6a1:	89 e5                	mov    %esp,%ebp
 6a3:	57                   	push   %edi
 6a4:	56                   	push   %esi
 6a5:	53                   	push   %ebx
 6a6:	83 ec 1c             	sub    $0x1c,%esp
  Header *p, *prevp;
  uint nunits;

  nunits = (nbytes + sizeof(Header) - 1)/sizeof(Header) + 1;
 6a9:	8b 45 08             	mov    0x8(%ebp),%eax
  if((prevp = freep) == 0){
 6ac:	8b 3d dc 0a 00 00    	mov    0xadc,%edi
  nunits = (nbytes + sizeof(Header) - 1)/sizeof(Header) + 1;
 6b2:	8d 70 07             	lea    0x7(%eax),%esi
 6b5:	c1 ee 03             	shr    $0x3,%esi
 6b8:	83 c6 01             	add    $0x1,%esi
  if((prevp = freep) == 0){
 6bb:	85 ff                	test   %edi,%edi
 6bd:	0f 84 9d 00 00 00    	je     760 <malloc+0xc0>
    base.s.ptr = freep = prevp = &base;
    base.s.size = 0;
  }
  for(p = prevp->s.ptr; ; prevp = p, p = p->s.ptr){
 6c3:	8b 17                	mov    (%edi),%edx
    if(p->s.size >= nunits){
 6c5:	8b 4a 04             	mov    0x4(%edx),%ecx
 6c8:	39 f1                	cmp    %esi,%ecx
 6ca:	73 6a                	jae    736 <malloc+0x96>
 6cc:	bb 00 10 00 00       	mov    $0x1000,%ebx
 6d1:	39 de                	cmp    %ebx,%esi
 6d3:	0f 43 de             	cmovae %esi,%ebx
  p = sbrk(nu * sizeof(Header));
 6d6:	8d 04 dd 00 00 00 00 	lea    0x0(,%ebx,8),%eax
 6dd:	89 45 e4             	mov    %eax,-0x1c(%ebp)
 6e0:	eb 17                	jmp    6f9 <malloc+0x59>
 6e2:	8d b6 00 00 00 00    	lea    0x0(%esi),%esi
  for(p = prevp->s.ptr; ; prevp = p, p = p->s.ptr){
 6e8:	8b 02                	mov    (%edx),%eax
    if(p->s.size >= nunits){
 6ea:	8b 48 04             	mov    0x4(%eax),%ecx
 6ed:	39 f1                	cmp    %esi,%ecx
 6ef:	73 4f                	jae    740 <malloc+0xa0>
        p->s.size = nunits;
      }
      freep = prevp;
      return (void*)(p + 1);
    }
    if(p == freep)
 6f1:	8b 3d dc 0a 00 00    	mov    0xadc,%edi
 6f7:	89 c2                	mov    %eax,%edx
 6f9:	39 d7                	cmp    %edx,%edi
 6fb:	75 eb                	jne    6e8 <malloc+0x48>
  p = sbrk(nu * sizeof(Header));
 6fd:	83 ec 0c             	sub    $0xc,%esp
 700:	ff 75 e4             	pushl  -0x1c(%ebp)
 703:	e8 7d fc ff ff       	call   385 <sbrk>
  if(p == (char*)-1)
 708:	83 c4 10             	add    $0x10,%esp
 70b:	83 f8 ff             	cmp    $0xffffffff,%eax
 70e:	74 1c                	je     72c <malloc+0x8c>
  hp->s.size = nu;
 710:	89 58 04             	mov    %ebx,0x4(%eax)
  free((void*)(hp + 1));
 713:	83 ec 0c             	sub    $0xc,%esp
 716:	83 c0 08             	add    $0x8,%eax
 719:	50                   	push   %eax
 71a:	e8 f1 fe ff ff       	call   610 <free>
  return freep;
 71f:	8b 15 dc 0a 00 00    	mov    0xadc,%edx
      if((p = morecore(nunits)) == 0)
 725:	83 c4 10             	add    $0x10,%esp
 728:	85 d2                	test   %edx,%edx
 72a:	75 bc                	jne    6e8 <malloc+0x48>
        return 0;
  }
}
 72c:	8d 65 f4             	lea    -0xc(%ebp),%esp
        return 0;
 72f:	31 c0                	xor    %eax,%eax
}
 731:	5b                   	pop    %ebx
 732:	5e                   	pop    %esi
 733:	5f                   	pop    %edi
 734:	5d                   	pop    %ebp
 735:	c3                   	ret    
    if(p->s.size >= nunits){
 736:	89 d0                	mov    %edx,%eax
 738:	89 fa                	mov    %edi,%edx
 73a:	8d b6 00 00 00 00    	lea    0x0(%esi),%esi
      if(p->s.size == nunits)
 740:	39 ce                	cmp    %ecx,%esi
 742:	74 4c                	je     790 <malloc+0xf0>
        p->s.size -= nunits;
 744:	29 f1                	sub    %esi,%ecx
 746:	89 48 04             	mov    %ecx,0x4(%eax)
        p += p->s.size;
 749:	8d 04 c8             	lea    (%eax,%ecx,8),%eax
        p->s.size = nunits;
 74c:	89 70 04             	mov    %esi,0x4(%eax)
      freep = prevp;
 74f:	89 15 dc 0a 00 00    	mov    %edx,0xadc
}
 755:	8d 65 f4             	lea    -0xc(%ebp),%esp
      return (void*)(p + 1);
 758:	83 c0 08             	add    $0x8,%eax
}
 75b:	5b                   	pop    %ebx
 75c:	5e                   	pop    %esi
 75d:	5f                   	pop    %edi
 75e:	5d                   	pop    %ebp
 75f:	c3                   	ret    
    base.s.ptr = freep = prevp = &base;
 760:	c7 05 dc 0a 00 00 e0 	movl   $0xae0,0xadc
 767:	0a 00 00 
    base.s.size = 0;
 76a:	bf e0 0a 00 00       	mov    $0xae0,%edi
    base.s.ptr = freep = prevp = &base;
 76f:	c7 05 e0 0a 00 00 e0 	movl   $0xae0,0xae0
 776:	0a 00 00 
  for(p = prevp->s.ptr; ; prevp = p, p = p->s.ptr){
 779:	89 fa                	mov    %edi,%edx
    base.s.size = 0;
 77b:	c7 05 e4 0a 00 00 00 	movl   $0x0,0xae4
 782:	00 00 00 
    if(p->s.size >= nunits){
 785:	e9 42 ff ff ff       	jmp    6cc <malloc+0x2c>
 78a:	8d b6 00 00 00 00    	lea    0x0(%esi),%esi
        prevp->s.ptr = p->s.ptr;
 790:	8b 08                	mov    (%eax),%ecx
 792:	89 0a                	mov    %ecx,(%edx)
 794:	eb b9                	jmp    74f <malloc+0xaf>
